ASxxxx Linker V03.00 + NoICE + sdld,  page 1.
Hexadecimal  [32-Bits]

Area                                    Addr        Size        Decimal Bytes (Attributes)
--------------------------------        ----        ----        ------- ----- ------------
.  .ABS.                            00000000    00000000 =           0. bytes (ABS,CON)

      Value  Global                              Global Defined In Module
      -----  --------------------------------   ------------------------
     00000000  .__.ABS.                           cpct_random
     00000000  l__CABS                         
     00000000  l__DABS                         
     00000000  l__GSFINAL                      
     00000000  l__GSINIT                       
     00000000  l__HOME                         
     00000000  l__INITIALIZED                  
     00000000  l__INITIALIZER                  
     00000000  s__CABS                         
     00000000  s__DABS                         
     0000011C  l__DATA                         
     000002EB  l__CODE                         
     00004000  s__CODE                         
     000042EB  s__DATA                         
     00004407  s__GSFINAL                      
     00004407  s__GSINIT                       
     00004407  s__HOME                         
     00004407  s__INITIALIZED                  
     00004407  s__INITIALIZER                  

ASxxxx Linker V03.00 + NoICE + sdld,  page 2.
Hexadecimal  [32-Bits]

Area                                    Addr        Size        Decimal Bytes (Attributes)
--------------------------------        ----        ----        ------- ----- ------------
_CODE                               00004000    000002EB =         747. bytes (REL,CON)

      Value  Global                              Global Defined In Module
      -----  --------------------------------   ------------------------
     00004000  _wait                              main
     00004013  _main                              main
     0000402D  _generateNewStar                   generator
     0000406B  _init_e                            generator
     00004072  _sys_generator_update              generator
     0000407B  _sys_physics_update_one_entity     physics
     000040B6  _sys_phyisics_update               physics
     000040BF  _sys_render_init                   render
     000040D3  _sys_render_one_entity             render
     0000411A  _sys_render_update                 render
     00004123  _man_entitiy_init                  entity
     00004142  _man_entitiy_create                entity
     00004157  _man_entity_forall                 entity
     00004174  _man_entity_destroy                entity
     000041AF  _man_entity_set4destruction        entity
     000041B8  _man_entity_update                 entity
     000041D0  _man_entity_freeSpace              entity
     000041D8  _cpct_setPALColour                 cpct_video
     000041E4  __moduchar                         
     000041F0  __moduint                          
     000041FB  _cpct_waitHalts                    cpct_memutils
     00004200  __divuint                          
     00004208  __divuchar                         
     0000420F  __divu8                            
     00004212  __divu16                           
     00004241  ___sdcc_call_hl                    
     00004242  _cpct_setVideoMode                 cpct_video
     00004250  _cpct_waitVSYNC                    cpct_video
     00004250  cpct_waitVSYNC_asm                 cpct_video
     00004258  _cpct_memset                       cpct_memutils
     00004266  _cpct_memcpy                       cpct_memutils
     0000426E  _cpct_disableFirmware              cpct_firmware
     0000426E  _cpct_removeInterruptHandler       cpct_firmware
     0000426E  cpct_disableFirmware_asm           cpct_firmware
     0000426E  cpct_removeInterruptHandler_asm    cpct_firmware
     0000427E  _cpct_getRandom_mxor_u8            cpct_random
     0000427E  cpct_getRandom_mxor_u8_asm         cpct_random
     0000427F  cpct_randomIdx_mxor_u8             cpct_random
     000042A3  _cpct_mode_rom_status              cpct_firmware
     000042A4  _cpct_getScreenPtr                 cpct_video
     000042C4  _cpct_mxor32_seed                  cpct_random
     000042C8  _cpct_nextRandom_mxor_u32          cpct_random
     000042C8  cpct_nextRandom_mxor_u32_asm       cpct_random

ASxxxx Linker V03.00 + NoICE + sdld,  page 3.
Hexadecimal  [32-Bits]

Area                                    Addr        Size        Decimal Bytes (Attributes)
--------------------------------        ----        ----        ------- ----- ------------
_DATA                               000042EB    0000011C =         284. bytes (REL,CON)

      Value  Global                              Global Defined In Module
      -----  --------------------------------   ------------------------
     000042EB  _m_entities                        entity
     00004403  _m_zero_type_at_the_end            entity
     00004404  _m_next_free_entity                entity
     00004406  _m_num_entities                    entity

ASxxxx Linker V03.00 + NoICE + sdld,  page 4.

Files Linked                              [ module(s) ]

obj/main.rel                              [ main ]
obj/sys/generator.rel                     [ generator ]
obj/sys/physics.rel                       [ physics ]
obj/sys/render.rel                        [ render ]
obj/man/entity.rel                        [ entity ]


Libraries Linked                          [ object file ]

/home/dani/opt/cpctelera/cpctelera/cpctelera.lib
                                          [ cpct_setPALColour_cbindings.rel ]
/home/dani/opt/cpctelera/cpctelera/tools/sdcc-3.6.8-r9946/bin/../share/sdcc/lib/z80/z80.lib
                                          [ modunsigned.rel ]
/home/dani/opt/cpctelera/cpctelera/cpctelera.lib
                                          [ cpct_waitHalts_cbindings.rel ]
/home/dani/opt/cpctelera/cpctelera/tools/sdcc-3.6.8-r9946/bin/../share/sdcc/lib/z80/z80.lib
                                          [ divunsigned.rel ]
/home/dani/opt/cpctelera/cpctelera/tools/sdcc-3.6.8-r9946/bin/../share/sdcc/lib/z80/z80.lib
                                          [ __sdcc_call_hl.rel ]
/home/dani/opt/cpctelera/cpctelera/cpctelera.lib
                                          [ cpct_setVideoMode_cbindings.rel ]
/home/dani/opt/cpctelera/cpctelera/cpctelera.lib
                                          [ cpct_waitVSYNC.rel ]
/home/dani/opt/cpctelera/cpctelera/cpctelera.lib
                                          [ cpct_memset_cbinding.rel ]
/home/dani/opt/cpctelera/cpctelera/cpctelera.lib
                                          [ cpct_memcpy_cbindings.rel ]
/home/dani/opt/cpctelera/cpctelera/cpctelera.lib
                                          [ cpct_removeInterruptHandler.rel ]
/home/dani/opt/cpctelera/cpctelera/cpctelera.lib
                                          [ cpct_getRandom_mxor_u8.rel ]
/home/dani/opt/cpctelera/cpctelera/cpctelera.lib
                                          [ cpc_mode_rom_status.rel ]
/home/dani/opt/cpctelera/cpctelera/cpctelera.lib
                                          [ cpct_getScreenPtr_cbindings.rel ]
/home/dani/opt/cpctelera/cpctelera/cpctelera.lib
                                          [ cpct_mxor32_seed.rel ]
/home/dani/opt/cpctelera/cpctelera/cpctelera.lib
                                          [ cpct_nextRandom_mxor_u32.rel ]

ASxxxx Linker V03.00 + NoICE + sdld,  page 5.

User Base Address Definitions

_CODE = 0x4000
_DATA = 0x0000

